
_servo0:

;micro.c,33 :: 		void servo0 ()  {
;micro.c,35 :: 		for (i=0;i<50;i++)    {
	CLRF       R1+0
	CLRF       R1+1
L_servo00:
	MOVLW      0
	SUBWF      R1+1, 0
	BTFSS      STATUS+0, 2
	GOTO       L__servo044
	MOVLW      50
	SUBWF      R1+0, 0
L__servo044:
	BTFSC      STATUS+0, 0
	GOTO       L_servo01
;micro.c,36 :: 		PortD.f0=1;
	BSF        PORTD+0, 0
;micro.c,37 :: 		delay_us(800);
	MOVLW      2
	MOVWF      R12+0
	MOVLW      8
	MOVWF      R13+0
L_servo03:
	DECFSZ     R13+0, 1
	GOTO       L_servo03
	DECFSZ     R12+0, 1
	GOTO       L_servo03
	NOP
;micro.c,38 :: 		PortD.f0=0;
	BCF        PORTD+0, 0
;micro.c,39 :: 		delay_us (19200) ;
	MOVLW      25
	MOVWF      R12+0
	MOVLW      238
	MOVWF      R13+0
L_servo04:
	DECFSZ     R13+0, 1
	GOTO       L_servo04
	DECFSZ     R12+0, 1
	GOTO       L_servo04
	NOP
;micro.c,35 :: 		for (i=0;i<50;i++)    {
	INCF       R1+0, 1
	BTFSC      STATUS+0, 2
	INCF       R1+1, 1
;micro.c,40 :: 		}
	GOTO       L_servo00
L_servo01:
;micro.c,41 :: 		}
L_end_servo0:
	RETURN
; end of _servo0

_servo180:

;micro.c,42 :: 		void servo180 ()  {
;micro.c,44 :: 		for (i=0;i<50;i++)    {
	CLRF       R1+0
	CLRF       R1+1
L_servo1805:
	MOVLW      0
	SUBWF      R1+1, 0
	BTFSS      STATUS+0, 2
	GOTO       L__servo18046
	MOVLW      50
	SUBWF      R1+0, 0
L__servo18046:
	BTFSC      STATUS+0, 0
	GOTO       L_servo1806
;micro.c,45 :: 		PortD.f0=1;
	BSF        PORTD+0, 0
;micro.c,46 :: 		delay_us(2200);
	MOVLW      3
	MOVWF      R12+0
	MOVLW      218
	MOVWF      R13+0
L_servo1808:
	DECFSZ     R13+0, 1
	GOTO       L_servo1808
	DECFSZ     R12+0, 1
	GOTO       L_servo1808
	NOP
;micro.c,47 :: 		PortD.f0=0;
	BCF        PORTD+0, 0
;micro.c,48 :: 		delay_us (17800) ;
	MOVLW      24
	MOVWF      R12+0
	MOVLW      28
	MOVWF      R13+0
L_servo1809:
	DECFSZ     R13+0, 1
	GOTO       L_servo1809
	DECFSZ     R12+0, 1
	GOTO       L_servo1809
	NOP
;micro.c,44 :: 		for (i=0;i<50;i++)    {
	INCF       R1+0, 1
	BTFSC      STATUS+0, 2
	INCF       R1+1, 1
;micro.c,49 :: 		}
	GOTO       L_servo1805
L_servo1806:
;micro.c,50 :: 		}
L_end_servo180:
	RETURN
; end of _servo180

_clignote:

;micro.c,52 :: 		void clignote()   // clignoter
;micro.c,54 :: 		for(i=0;i<3;i++){
	CLRF       _i+0
	CLRF       _i+1
L_clignote10:
	MOVLW      128
	XORWF      _i+1, 0
	MOVWF      R0+0
	MOVLW      128
	SUBWF      R0+0, 0
	BTFSS      STATUS+0, 2
	GOTO       L__clignote48
	MOVLW      3
	SUBWF      _i+0, 0
L__clignote48:
	BTFSC      STATUS+0, 0
	GOTO       L_clignote11
;micro.c,55 :: 		PORTD.RD3=1;
	BSF        PORTD+0, 3
;micro.c,56 :: 		delay_ms(1000);   // temps d'attente
	MOVLW      6
	MOVWF      R11+0
	MOVLW      19
	MOVWF      R12+0
	MOVLW      173
	MOVWF      R13+0
L_clignote13:
	DECFSZ     R13+0, 1
	GOTO       L_clignote13
	DECFSZ     R12+0, 1
	GOTO       L_clignote13
	DECFSZ     R11+0, 1
	GOTO       L_clignote13
	NOP
	NOP
;micro.c,57 :: 		PORTD.RD3=0;
	BCF        PORTD+0, 3
;micro.c,58 :: 		delay_ms(1000);
	MOVLW      6
	MOVWF      R11+0
	MOVLW      19
	MOVWF      R12+0
	MOVLW      173
	MOVWF      R13+0
L_clignote14:
	DECFSZ     R13+0, 1
	GOTO       L_clignote14
	DECFSZ     R12+0, 1
	GOTO       L_clignote14
	DECFSZ     R11+0, 1
	GOTO       L_clignote14
	NOP
	NOP
;micro.c,54 :: 		for(i=0;i<3;i++){
	INCF       _i+0, 1
	BTFSC      STATUS+0, 2
	INCF       _i+1, 1
;micro.c,59 :: 		}}
	GOTO       L_clignote10
L_clignote11:
L_end_clignote:
	RETURN
; end of _clignote

_sound:

;micro.c,60 :: 		void sound(){
;micro.c,61 :: 		Sound_Init(&PORTD, 5);
	MOVLW      PORTD+0
	MOVWF      FARG_Sound_Init_snd_port+0
	MOVLW      5
	MOVWF      FARG_Sound_Init_snd_pin+0
	CALL       _Sound_Init+0
;micro.c,62 :: 		Sound_Play(880, 1000);
	MOVLW      112
	MOVWF      FARG_Sound_Play_freq_in_hz+0
	MOVLW      3
	MOVWF      FARG_Sound_Play_freq_in_hz+1
	MOVLW      232
	MOVWF      FARG_Sound_Play_duration_ms+0
	MOVLW      3
	MOVWF      FARG_Sound_Play_duration_ms+1
	CALL       _Sound_Play+0
;micro.c,64 :: 		}
L_end_sound:
	RETURN
; end of _sound

_READ_temp:

;micro.c,65 :: 		void READ_temp(void)
;micro.c,67 :: 		temp = ADC_Read(0);
	CLRF       FARG_ADC_Read_channel+0
	CALL       _ADC_Read+0
	MOVF       R0+0, 0
	MOVWF      _Temp+0
	MOVF       R0+1, 0
	MOVWF      _Temp+1
;micro.c,68 :: 		temp = temp * 5/1023;                                                                                                                                                                         temp = temp * 100;
	MOVLW      5
	MOVWF      R4+0
	MOVLW      0
	MOVWF      R4+1
	CALL       _Mul_16X16_U+0
	MOVLW      255
	MOVWF      R4+0
	MOVLW      3
	MOVWF      R4+1
	CALL       _Div_16X16_U+0
	MOVF       R0+0, 0
	MOVWF      _Temp+0
	MOVF       R0+1, 0
	MOVWF      _Temp+1
	MOVLW      100
	MOVWF      R4+0
	MOVLW      0
	MOVWF      R4+1
	CALL       _Mul_16X16_U+0
	MOVF       R0+0, 0
	MOVWF      _Temp+0
	MOVF       R0+1, 0
	MOVWF      _Temp+1
;micro.c,70 :: 		}
L_end_READ_temp:
	RETURN
; end of _READ_temp

_interrupt:
	MOVWF      R15+0
	SWAPF      STATUS+0, 0
	CLRF       STATUS+0
	MOVWF      ___saveSTATUS+0
	MOVF       PCLATH+0, 0
	MOVWF      ___savePCLATH+0
	CLRF       PCLATH+0

;micro.c,74 :: 		void interrupt(){
;micro.c,75 :: 		if((INTCON.INTF)){
	BTFSS      INTCON+0, 1
	GOTO       L_interrupt15
;micro.c,78 :: 		sound();
	CALL       _sound+0
;micro.c,80 :: 		clignote();
	CALL       _clignote+0
;micro.c,83 :: 		INTCON.INTF=0;
	BCF        INTCON+0, 1
;micro.c,84 :: 		}
	GOTO       L_interrupt16
L_interrupt15:
;micro.c,85 :: 		else if((INTCON.RBIF==1)){
	BTFSS      INTCON+0, 0
	GOTO       L_interrupt17
;micro.c,86 :: 		if(PORTB.RB4==1){
	BTFSS      PORTB+0, 4
	GOTO       L_interrupt18
;micro.c,87 :: 		servo180();
	CALL       _servo180+0
;micro.c,88 :: 		delay_us(2000);
	MOVLW      3
	MOVWF      R12+0
	MOVLW      151
	MOVWF      R13+0
L_interrupt19:
	DECFSZ     R13+0, 1
	GOTO       L_interrupt19
	DECFSZ     R12+0, 1
	GOTO       L_interrupt19
	NOP
	NOP
;micro.c,93 :: 		}  if(PORTB.RB5==1){
L_interrupt18:
	BTFSS      PORTB+0, 5
	GOTO       L_interrupt20
;micro.c,94 :: 		servo0();
	CALL       _servo0+0
;micro.c,95 :: 		delay_us(2000);
	MOVLW      3
	MOVWF      R12+0
	MOVLW      151
	MOVWF      R13+0
L_interrupt21:
	DECFSZ     R13+0, 1
	GOTO       L_interrupt21
	DECFSZ     R12+0, 1
	GOTO       L_interrupt21
	NOP
	NOP
;micro.c,98 :: 		}
L_interrupt20:
;micro.c,99 :: 		INTCON.RBIF=0;
	BCF        INTCON+0, 0
;micro.c,100 :: 		}
L_interrupt17:
L_interrupt16:
;micro.c,102 :: 		if(INTCON.TMR0IF){
	BTFSS      INTCON+0, 2
	GOTO       L_interrupt22
;micro.c,104 :: 		count++;
	INCF       _count+0, 1
	BTFSC      STATUS+0, 2
	INCF       _count+1, 1
;micro.c,105 :: 		if(count==244){  //244=8s
	MOVLW      0
	XORWF      _count+1, 0
	BTFSS      STATUS+0, 2
	GOTO       L__interrupt53
	MOVLW      244
	XORWF      _count+0, 0
L__interrupt53:
	BTFSS      STATUS+0, 2
	GOTO       L_interrupt23
;micro.c,107 :: 		Sound_Init(&PORTD, 5);
	MOVLW      PORTD+0
	MOVWF      FARG_Sound_Init_snd_port+0
	MOVLW      5
	MOVWF      FARG_Sound_Init_snd_pin+0
	CALL       _Sound_Init+0
;micro.c,108 :: 		Sound_Play(880, 1000);
	MOVLW      112
	MOVWF      FARG_Sound_Play_freq_in_hz+0
	MOVLW      3
	MOVWF      FARG_Sound_Play_freq_in_hz+1
	MOVLW      232
	MOVWF      FARG_Sound_Play_duration_ms+0
	MOVLW      3
	MOVWF      FARG_Sound_Play_duration_ms+1
	CALL       _Sound_Play+0
;micro.c,110 :: 		count=0;
	CLRF       _count+0
	CLRF       _count+1
;micro.c,112 :: 		}
L_interrupt23:
;micro.c,114 :: 		INTCON.TMR0IF=0;
	BCF        INTCON+0, 2
;micro.c,118 :: 		}
L_interrupt22:
;micro.c,122 :: 		}
L_end_interrupt:
L__interrupt52:
	MOVF       ___savePCLATH+0, 0
	MOVWF      PCLATH+0
	SWAPF      ___saveSTATUS+0, 0
	MOVWF      STATUS+0
	SWAPF      R15+0, 1
	SWAPF      R15+0, 0
	RETFIE
; end of _interrupt

_main:

;micro.c,126 :: 		void main() {
;micro.c,127 :: 		ADCON1 =1;
	MOVLW      1
	MOVWF      ADCON1+0
;micro.c,130 :: 		TRISB=255;
	MOVLW      255
	MOVWF      TRISB+0
;micro.c,131 :: 		TRISD=0;
	CLRF       TRISD+0
;micro.c,133 :: 		INTCON.TMR0IE=1;     //   Autoriser l'interruption a timer
	BSF        INTCON+0, 5
;micro.c,136 :: 		OPTION_REG.T0CS=0;
	BCF        OPTION_REG+0, 5
;micro.c,137 :: 		OPTION_REG.T0SE=0;
	BCF        OPTION_REG+0, 4
;micro.c,138 :: 		OPTION_REG.PSA=0;
	BCF        OPTION_REG+0, 3
;micro.c,139 :: 		OPTION_REG.PS2=1;
	BSF        OPTION_REG+0, 2
;micro.c,140 :: 		OPTION_REG.PS1=1;
	BSF        OPTION_REG+0, 1
;micro.c,141 :: 		OPTION_REG.PS0=0;
	BCF        OPTION_REG+0, 0
;micro.c,142 :: 		INTCON.GIE=1;   //Autorisation des interruption globale
	BSF        INTCON+0, 7
;micro.c,143 :: 		INTCON.INTE=1; // Autoriser l'interruption RB0
	BSF        INTCON+0, 4
;micro.c,144 :: 		INTCON.RBIE=1; //           Autoriser l'interruption RB4 et 5
	BSF        INTCON+0, 3
;micro.c,149 :: 		PORTD=0;       // les leds du portA sont initialement ?teintes
	CLRF       PORTD+0
;micro.c,153 :: 		ADC_Init();
	CALL       _ADC_Init+0
;micro.c,155 :: 		Lcd_Init();   // Initialize LCD
	CALL       _Lcd_Init+0
;micro.c,156 :: 		Lcd_Cmd(_LCD_CURSOR_OFF);          // Cursor off
	MOVLW      12
	MOVWF      FARG_Lcd_Cmd_out_char+0
	CALL       _Lcd_Cmd+0
;micro.c,157 :: 		Lcd_Cmd(_LCD_CLEAR);               // Clear display
	MOVLW      1
	MOVWF      FARG_Lcd_Cmd_out_char+0
	CALL       _Lcd_Cmd+0
;micro.c,158 :: 		Lcd_Out(1,1,txt1);                 // Write text in first row
	MOVLW      1
	MOVWF      FARG_Lcd_Out_row+0
	MOVLW      1
	MOVWF      FARG_Lcd_Out_column+0
	MOVLW      _txt1+0
	MOVWF      FARG_Lcd_Out_text+0
	CALL       _Lcd_Out+0
;micro.c,159 :: 		Lcd_Out(2,1,txt2);                 // Write text in second row
	MOVLW      2
	MOVWF      FARG_Lcd_Out_row+0
	MOVLW      1
	MOVWF      FARG_Lcd_Out_column+0
	MOVLW      _txt2+0
	MOVWF      FARG_Lcd_Out_text+0
	CALL       _Lcd_Out+0
;micro.c,161 :: 		Lcd_Cmd(_LCD_CLEAR); // Clear display
	MOVLW      1
	MOVWF      FARG_Lcd_Cmd_out_char+0
	CALL       _Lcd_Cmd+0
;micro.c,163 :: 		for (i = 0; i < 30; i++)
	CLRF       _i+0
	CLRF       _i+1
L_main24:
	MOVLW      128
	XORWF      _i+1, 0
	MOVWF      R0+0
	MOVLW      128
	SUBWF      R0+0, 0
	BTFSS      STATUS+0, 2
	GOTO       L__main55
	MOVLW      30
	SUBWF      _i+0, 0
L__main55:
	BTFSC      STATUS+0, 0
	GOTO       L_main25
;micro.c,165 :: 		eeprom_write(i, medicament[i]); // ecrire dans la memoire eeprom
	MOVF       _i+0, 0
	MOVWF      FARG_EEPROM_Write_Address+0
	MOVF       _i+0, 0
	ADDLW      _medicament+0
	MOVWF      FSR
	MOVF       INDF+0, 0
	MOVWF      FARG_EEPROM_Write_data_+0
	CALL       _EEPROM_Write+0
;micro.c,163 :: 		for (i = 0; i < 30; i++)
	INCF       _i+0, 1
	BTFSC      STATUS+0, 2
	INCF       _i+1, 1
;micro.c,166 :: 		}
	GOTO       L_main24
L_main25:
;micro.c,170 :: 		while(1) {
L_main27:
;micro.c,171 :: 		PORTD=0;
	CLRF       PORTD+0
;micro.c,172 :: 		Lcd_Cmd(_LCD_CLEAR);
	MOVLW      1
	MOVWF      FARG_Lcd_Cmd_out_char+0
	CALL       _Lcd_Cmd+0
;micro.c,173 :: 		Lcd_Out(1,1,txt1);                 // Write text in first row
	MOVLW      1
	MOVWF      FARG_Lcd_Out_row+0
	MOVLW      1
	MOVWF      FARG_Lcd_Out_column+0
	MOVLW      _txt1+0
	MOVWF      FARG_Lcd_Out_text+0
	CALL       _Lcd_Out+0
;micro.c,174 :: 		Lcd_Out(2,1,txt2);
	MOVLW      2
	MOVWF      FARG_Lcd_Out_row+0
	MOVLW      1
	MOVWF      FARG_Lcd_Out_column+0
	MOVLW      _txt2+0
	MOVWF      FARG_Lcd_Out_text+0
	CALL       _Lcd_Out+0
;micro.c,175 :: 		delay_ms(3000);
	MOVLW      16
	MOVWF      R11+0
	MOVLW      57
	MOVWF      R12+0
	MOVLW      13
	MOVWF      R13+0
L_main29:
	DECFSZ     R13+0, 1
	GOTO       L_main29
	DECFSZ     R12+0, 1
	GOTO       L_main29
	DECFSZ     R11+0, 1
	GOTO       L_main29
	NOP
	NOP
;micro.c,176 :: 		son=1;
	MOVLW      1
	MOVWF      _son+0
	MOVLW      0
	MOVWF      _son+1
;micro.c,177 :: 		Lcd_Cmd(_LCD_CLEAR);
	MOVLW      1
	MOVWF      FARG_Lcd_Cmd_out_char+0
	CALL       _Lcd_Cmd+0
;micro.c,180 :: 		lcd_out(1, 3, "Temperature:");
	MOVLW      1
	MOVWF      FARG_Lcd_Out_row+0
	MOVLW      3
	MOVWF      FARG_Lcd_Out_column+0
	MOVLW      ?lstr1_micro+0
	MOVWF      FARG_Lcd_Out_text+0
	CALL       _Lcd_Out+0
;micro.c,181 :: 		Temp = ADC_Read(0) * 0.489;              // Read analog voltage and convert it to degree Celsius (0.489 = 500/1023)
	CLRF       FARG_ADC_Read_channel+0
	CALL       _ADC_Read+0
	CALL       _word2double+0
	MOVLW      53
	MOVWF      R4+0
	MOVLW      94
	MOVWF      R4+1
	MOVLW      122
	MOVWF      R4+2
	MOVLW      125
	MOVWF      R4+3
	CALL       _Mul_32x32_FP+0
	CALL       _double2word+0
	MOVF       R0+0, 0
	MOVWF      FLOC__main+0
	MOVF       R0+1, 0
	MOVWF      FLOC__main+1
	MOVF       FLOC__main+0, 0
	MOVWF      _Temp+0
	MOVF       FLOC__main+1, 0
	MOVWF      _Temp+1
;micro.c,184 :: 		Temperature[1]  = (temp / 10) % 10  + 48;
	MOVLW      10
	MOVWF      R4+0
	MOVLW      0
	MOVWF      R4+1
	MOVF       FLOC__main+0, 0
	MOVWF      R0+0
	MOVF       FLOC__main+1, 0
	MOVWF      R0+1
	CALL       _Div_16X16_U+0
	MOVLW      10
	MOVWF      R4+0
	MOVLW      0
	MOVWF      R4+1
	CALL       _Div_16X16_U+0
	MOVF       R8+0, 0
	MOVWF      R0+0
	MOVF       R8+1, 0
	MOVWF      R0+1
	MOVLW      48
	ADDWF      R0+0, 0
	MOVWF      _Temperature+1
;micro.c,185 :: 		Temperature[2]  =  temp % 10  + 48;
	MOVLW      10
	MOVWF      R4+0
	MOVLW      0
	MOVWF      R4+1
	MOVF       FLOC__main+0, 0
	MOVWF      R0+0
	MOVF       FLOC__main+1, 0
	MOVWF      R0+1
	CALL       _Div_16X16_U+0
	MOVF       R8+0, 0
	MOVWF      R0+0
	MOVF       R8+1, 0
	MOVWF      R0+1
	MOVLW      48
	ADDWF      R0+0, 0
	MOVWF      _Temperature+2
;micro.c,186 :: 		Temperature[5] = 223;                    // Put degree symbol ( ° )
	MOVLW      223
	MOVWF      _Temperature+5
;micro.c,188 :: 		lcd_out(2, 5, Temperature);
	MOVLW      2
	MOVWF      FARG_Lcd_Out_row+0
	MOVLW      5
	MOVWF      FARG_Lcd_Out_column+0
	MOVLW      _Temperature+0
	MOVWF      FARG_Lcd_Out_text+0
	CALL       _Lcd_Out+0
;micro.c,189 :: 		delay_ms(1000);
	MOVLW      6
	MOVWF      R11+0
	MOVLW      19
	MOVWF      R12+0
	MOVLW      173
	MOVWF      R13+0
L_main30:
	DECFSZ     R13+0, 1
	GOTO       L_main30
	DECFSZ     R12+0, 1
	GOTO       L_main30
	DECFSZ     R11+0, 1
	GOTO       L_main30
	NOP
	NOP
;micro.c,190 :: 		Lcd_Cmd(_LCD_CLEAR);              // Display LM35 temperature result
	MOVLW      1
	MOVWF      FARG_Lcd_Cmd_out_char+0
	CALL       _Lcd_Cmd+0
;micro.c,191 :: 		if( Temp>39)
	MOVF       _Temp+1, 0
	SUBLW      0
	BTFSS      STATUS+0, 2
	GOTO       L__main56
	MOVF       _Temp+0, 0
	SUBLW      39
L__main56:
	BTFSC      STATUS+0, 0
	GOTO       L_main31
;micro.c,193 :: 		PORTD.RD4=1;
	BSF        PORTD+0, 4
;micro.c,194 :: 		delay_ms(1000);
	MOVLW      6
	MOVWF      R11+0
	MOVLW      19
	MOVWF      R12+0
	MOVLW      173
	MOVWF      R13+0
L_main32:
	DECFSZ     R13+0, 1
	GOTO       L_main32
	DECFSZ     R12+0, 1
	GOTO       L_main32
	DECFSZ     R11+0, 1
	GOTO       L_main32
	NOP
	NOP
;micro.c,195 :: 		PORTD.RD4=0;
	BCF        PORTD+0, 4
;micro.c,196 :: 		}else if( Temp<39)
	GOTO       L_main33
L_main31:
	MOVLW      0
	SUBWF      _Temp+1, 0
	BTFSS      STATUS+0, 2
	GOTO       L__main57
	MOVLW      39
	SUBWF      _Temp+0, 0
L__main57:
	BTFSC      STATUS+0, 0
	GOTO       L_main34
;micro.c,198 :: 		PORTD.RD2=1;
	BSF        PORTD+0, 2
;micro.c,199 :: 		delay_ms(1000);
	MOVLW      6
	MOVWF      R11+0
	MOVLW      19
	MOVWF      R12+0
	MOVLW      173
	MOVWF      R13+0
L_main35:
	DECFSZ     R13+0, 1
	GOTO       L_main35
	DECFSZ     R12+0, 1
	GOTO       L_main35
	DECFSZ     R11+0, 1
	GOTO       L_main35
	NOP
	NOP
;micro.c,200 :: 		PORTD.RD2=0;
	BCF        PORTD+0, 2
;micro.c,201 :: 		}
L_main34:
L_main33:
;micro.c,202 :: 		for (i = 0; i < 14; i++)
	CLRF       _i+0
	CLRF       _i+1
L_main36:
	MOVLW      128
	XORWF      _i+1, 0
	MOVWF      R0+0
	MOVLW      128
	SUBWF      R0+0, 0
	BTFSS      STATUS+0, 2
	GOTO       L__main58
	MOVLW      14
	SUBWF      _i+0, 0
L__main58:
	BTFSC      STATUS+0, 0
	GOTO       L_main37
;micro.c,204 :: 		medicamenticament01[i] = eeprom_read(i);
	MOVF       _i+0, 0
	ADDLW      _medicamenticament01+0
	MOVWF      FLOC__main+0
	MOVF       _i+0, 0
	MOVWF      FARG_EEPROM_Read_Address+0
	CALL       _EEPROM_Read+0
	MOVF       FLOC__main+0, 0
	MOVWF      FSR
	MOVF       R0+0, 0
	MOVWF      INDF+0
;micro.c,202 :: 		for (i = 0; i < 14; i++)
	INCF       _i+0, 1
	BTFSC      STATUS+0, 2
	INCF       _i+1, 1
;micro.c,205 :: 		}
	GOTO       L_main36
L_main37:
;micro.c,206 :: 		for (i = 0; i < 14; i++)
	CLRF       _i+0
	CLRF       _i+1
L_main39:
	MOVLW      128
	XORWF      _i+1, 0
	MOVWF      R0+0
	MOVLW      128
	SUBWF      R0+0, 0
	BTFSS      STATUS+0, 2
	GOTO       L__main59
	MOVLW      14
	SUBWF      _i+0, 0
L__main59:
	BTFSC      STATUS+0, 0
	GOTO       L_main40
;micro.c,208 :: 		medicamenticament02[i] = eeprom_read(ligne02);
	MOVF       _i+0, 0
	ADDLW      _medicamenticament02+0
	MOVWF      FLOC__main+0
	MOVF       _ligne02+0, 0
	MOVWF      FARG_EEPROM_Read_Address+0
	CALL       _EEPROM_Read+0
	MOVF       FLOC__main+0, 0
	MOVWF      FSR
	MOVF       R0+0, 0
	MOVWF      INDF+0
;micro.c,209 :: 		ligne02++;
	INCF       _ligne02+0, 1
	BTFSC      STATUS+0, 2
	INCF       _ligne02+1, 1
;micro.c,206 :: 		for (i = 0; i < 14; i++)
	INCF       _i+0, 1
	BTFSC      STATUS+0, 2
	INCF       _i+1, 1
;micro.c,210 :: 		}
	GOTO       L_main39
L_main40:
;micro.c,211 :: 		ligne02 = 15;
	MOVLW      15
	MOVWF      _ligne02+0
	MOVLW      0
	MOVWF      _ligne02+1
;micro.c,212 :: 		LCD_Cmd(_LCD_CLEAR);
	MOVLW      1
	MOVWF      FARG_Lcd_Cmd_out_char+0
	CALL       _Lcd_Cmd+0
;micro.c,213 :: 		LCD_Out(1, 1, medicamenticament01);
	MOVLW      1
	MOVWF      FARG_Lcd_Out_row+0
	MOVLW      1
	MOVWF      FARG_Lcd_Out_column+0
	MOVLW      _medicamenticament01+0
	MOVWF      FARG_Lcd_Out_text+0
	CALL       _Lcd_Out+0
;micro.c,214 :: 		LCD_Out(2, 1, medicamenticament02);
	MOVLW      2
	MOVWF      FARG_Lcd_Out_row+0
	MOVLW      1
	MOVWF      FARG_Lcd_Out_column+0
	MOVLW      _medicamenticament02+0
	MOVWF      FARG_Lcd_Out_text+0
	CALL       _Lcd_Out+0
;micro.c,215 :: 		delay_ms(2000);
	MOVLW      11
	MOVWF      R11+0
	MOVLW      38
	MOVWF      R12+0
	MOVLW      93
	MOVWF      R13+0
L_main42:
	DECFSZ     R13+0, 1
	GOTO       L_main42
	DECFSZ     R12+0, 1
	GOTO       L_main42
	DECFSZ     R11+0, 1
	GOTO       L_main42
	NOP
	NOP
;micro.c,217 :: 		}
	GOTO       L_main27
;micro.c,218 :: 		}
L_end_main:
	GOTO       $+0
; end of _main
